target datalayout = "e-m:e-p270:32:32-p271:32:32-p272:64:64-i64:64-i128:128-f80:128-n8:16:32:64-S128"
target triple = "x86_64-pc-linux-gnu"

@.str = private unnamed_addr constant [32 x i8] c"../openssl/crypto/x509/v3_utl.c\00", align 1
@.str.22 = private unnamed_addr constant [4 x i8] c"-0x\00", align 1
@.str.23 = private unnamed_addr constant [3 x i8] c"0x\00", align 1

; Function Attrs: nounwind uwtable
define internal ptr @bignum_to_string(ptr noundef %0) #0 {
  %2 = alloca ptr, align 8
  %3 = alloca ptr, align 8
  %4 = alloca ptr, align 8
  %5 = alloca ptr, align 8
  %6 = alloca i64, align 8
  %7 = alloca i32, align 4
  store ptr %0, ptr %3, align 8, !tbaa !25
  call void @llvm.lifetime.start.p0(i64 8, ptr %4) #8
  call void @llvm.lifetime.start.p0(i64 8, ptr %5) #8
  call void @llvm.lifetime.start.p0(i64 8, ptr %6) #8
  %8 = load ptr, ptr %3, align 8, !tbaa !25
  %9 = call i32 @BN_num_bits(ptr noundef %8)
  %10 = icmp slt i32 %9, 128
  br i1 %10, label %11, label %14

11:                                               ; preds = %1
  %12 = load ptr, ptr %3, align 8, !tbaa !25
  %13 = call ptr @BN_bn2dec(ptr noundef %12)
  store ptr %13, ptr %2, align 8
  store i32 1, ptr %7, align 4
  br label %56

14:                                               ; preds = %1
  %15 = load ptr, ptr %3, align 8, !tbaa !25
  %16 = call ptr @BN_bn2hex(ptr noundef %15)
  store ptr %16, ptr %4, align 8, !tbaa !3
  %17 = load ptr, ptr %4, align 8, !tbaa !3
  %18 = icmp eq ptr %17, null
  br i1 %18, label %19, label %20

19:                                               ; preds = %14
  store ptr null, ptr %2, align 8
  store i32 1, ptr %7, align 4
  br label %56

20:                                               ; preds = %14
  %21 = load ptr, ptr %4, align 8, !tbaa !3
  %22 = call i64 @strlen(ptr noundef %21) #7
  %23 = add i64 %22, 3
  store i64 %23, ptr %6, align 8, !tbaa !10
  %24 = load i64, ptr %6, align 8, !tbaa !10
  %25 = call noalias ptr @CRYPTO_malloc(i64 noundef %24, ptr noundef @.str, i32 noundef 148)
  store ptr %25, ptr %5, align 8, !tbaa !3
  %26 = load ptr, ptr %5, align 8, !tbaa !3
  %27 = icmp eq ptr %26, null
  br i1 %27, label %28, label %30

28:                                               ; preds = %20
  %29 = load ptr, ptr %4, align 8, !tbaa !3
  call void @CRYPTO_free(ptr noundef %29, ptr noundef @.str, i32 noundef 150)
  store ptr null, ptr %2, align 8
  store i32 1, ptr %7, align 4
  br label %56

30:                                               ; preds = %20
  %31 = load ptr, ptr %4, align 8, !tbaa !3
  %32 = getelementptr inbounds i8, ptr %31, i64 0
  %33 = load i8, ptr %32, align 1, !tbaa !27
  %34 = sext i8 %33 to i32
  %35 = icmp eq i32 %34, 45
  br i1 %35, label %36, label %45

36:                                               ; preds = %30
  %37 = load ptr, ptr %5, align 8, !tbaa !3
  %38 = load i64, ptr %6, align 8, !tbaa !10
  %39 = call i64 @OPENSSL_strlcpy(ptr noundef %37, ptr noundef @.str.22, i64 noundef %38)
  %40 = load ptr, ptr %5, align 8, !tbaa !3
  %41 = load ptr, ptr %4, align 8, !tbaa !3
  %42 = getelementptr inbounds i8, ptr %41, i64 1
  %43 = load i64, ptr %6, align 8, !tbaa !10
  %44 = call i64 @OPENSSL_strlcat(ptr noundef %40, ptr noundef %42, i64 noundef %43)
  br label %53

45:                                               ; preds = %30
  %46 = load ptr, ptr %5, align 8, !tbaa !3
  %47 = load i64, ptr %6, align 8, !tbaa !10
  %48 = call i64 @OPENSSL_strlcpy(ptr noundef %46, ptr noundef @.str.23, i64 noundef %47)
  %49 = load ptr, ptr %5, align 8, !tbaa !3
  %50 = load ptr, ptr %4, align 8, !tbaa !3
  %51 = load i64, ptr %6, align 8, !tbaa !10
  %52 = call i64 @OPENSSL_strlcat(ptr noundef %49, ptr noundef %50, i64 noundef %51)
  br label %53

53:                                               ; preds = %45, %36
  %54 = load ptr, ptr %4, align 8, !tbaa !3
  call void @CRYPTO_free(ptr noundef %54, ptr noundef @.str, i32 noundef 162)
  %55 = load ptr, ptr %5, align 8, !tbaa !3
  store ptr %55, ptr %2, align 8
  store i32 1, ptr %7, align 4
  br label %56

56:                                               ; preds = %53, %28, %19, %11
  call void @llvm.lifetime.end.p0(i64 8, ptr %6) #8
  call void @llvm.lifetime.end.p0(i64 8, ptr %5) #8
  call void @llvm.lifetime.end.p0(i64 8, ptr %4) #8
  %57 = load ptr, ptr %2, align 8
  ret ptr %57
}