; Function Attrs: nounwind uwtable
define internal fastcc ptr @bignum_to_string(ptr noundef nonnull %0) unnamed_addr #0 {
  %2 = tail call i32 @BN_num_bits(ptr noundef nonnull %0) #12
  %3 = icmp slt i32 %2, 128
  br i1 %3, label %4, label %6

4:                                                ; preds = %1
  %5 = tail call ptr @BN_bn2dec(ptr noundef nonnull %0) #12
  br label %25

6:                                                ; preds = %1
  %7 = tail call ptr @BN_bn2hex(ptr noundef nonnull %0) #12
  %8 = icmp eq ptr %7, null
  br i1 %8, label %25, label %9

9:                                                ; preds = %6
  %10 = tail call i64 @strlen(ptr noundef nonnull dereferenceable(1) %7) #11
  %11 = add i64 %10, 3
  %12 = tail call noalias ptr @CRYPTO_malloc(i64 noundef %11, ptr noundef nonnull @.str, i32 noundef 148) #12
  %13 = icmp eq ptr %12, null
  br i1 %13, label %14, label %15

14:                                               ; preds = %9
  tail call void @CRYPTO_free(ptr noundef nonnull %7, ptr noundef nonnull @.str, i32 noundef 150) #12
  br label %25

15:                                               ; preds = %9
  %16 = load i8, ptr %7, align 1, !tbaa !13
  %17 = icmp eq i8 %16, 45
  br i1 %17, label %18, label %21

18:                                               ; preds = %15
  %19 = tail call i64 @OPENSSL_strlcpy(ptr noundef nonnull %12, ptr noundef nonnull @.str.22, i64 noundef %11) #12
  %20 = getelementptr inbounds nuw i8, ptr %7, i64 1
  br label %23

21:                                               ; preds = %15
  %22 = tail call i64 @OPENSSL_strlcpy(ptr noundef nonnull %12, ptr noundef nonnull @.str.23, i64 noundef %11) #12
  br label %23

23:                                               ; preds = %21, %18
  %.sink = phi ptr [ %7, %21 ], [ %20, %18 ]
  %24 = tail call i64 @OPENSSL_strlcat(ptr noundef nonnull %12, ptr noundef nonnull %.sink, i64 noundef %11) #12
  tail call void @CRYPTO_free(ptr noundef nonnull %7, ptr noundef nonnull @.str, i32 noundef 162) #12
  br label %25

25:                                               ; preds = %6, %23, %14, %4
  %.0 = phi ptr [ %5, %4 ], [ null, %14 ], [ %12, %23 ], [ null, %6 ]
  ret ptr %.0
}